; Function Attrs: mustprogress nofree norecurse nosync nounwind memory(argmem: readwrite) uwtable
define void @ImfFloatToHalfArray(i32 noundef %0, ptr noundef readonly captures(none) %1, ptr noundef writeonly captures(none) %2) local_unnamed_addr #5 personality ptr @__gxx_personality_v0 {
  %4 = icmp sgt i32 %0, 0
  br i1 %4, label %.lr.ph.preheader, label %._crit_edge

.lr.ph.preheader:                                 ; preds = %3
  %wide.trip.count = zext nneg i32 %0 to i64
  br label %.lr.ph

._crit_edge:                                      ; preds = %_ZN9Imath_3_24halfC2Ef.exit, %3
  ret void

.lr.ph:                                           ; preds = %.lr.ph.preheader, %_ZN9Imath_3_24halfC2Ef.exit
  %indvars.iv = phi i64 [ 0, %.lr.ph.preheader ], [ %indvars.iv.next, %_ZN9Imath_3_24halfC2Ef.exit ]
  %5 = getelementptr inbounds nuw float, ptr %1, i64 %indvars.iv
  %6 = load float, ptr %5, align 4, !tbaa !8
  %7 = bitcast float %6 to i32
  %8 = tail call float @llvm.fabs.f32(float %6)
  %9 = bitcast float %8 to i32
  %10 = lshr i32 %7, 16
  %11 = trunc nuw i32 %10 to i16
  %12 = and i16 %11, -32768
  %13 = icmp samesign ugt i32 %9, 947912703
  br i1 %13, label %14, label %40

14:                                               ; preds = %.lr.ph
  %15 = icmp samesign ugt i32 %9, 2139095039
  br i1 %15, label %16, label %27, !prof !3

16:                                               ; preds = %14
  %17 = or disjoint i16 %12, 31744
  %18 = icmp eq i32 %9, 2139095040
  br i1 %18, label %_ZN9Imath_3_24halfC2Ef.exit, label %19

19:                                               ; preds = %16
  %20 = lshr i32 %9, 13
  %21 = and i32 %20, 1023
  %22 = icmp eq i32 %21, 0
  %23 = zext i1 %22 to i16
  %24 = trunc nuw nsw i32 %21 to i16
  %25 = or i16 %24, %23
  %26 = or disjoint i16 %25, %17
  br label %_ZN9Imath_3_24halfC2Ef.exit

27:                                               ; preds = %14
  %28 = icmp samesign ugt i32 %9, 1199566847
  br i1 %28, label %29, label %31, !prof !3

29:                                               ; preds = %27
  %30 = or disjoint i16 %12, 31744
  br label %_ZN9Imath_3_24halfC2Ef.exit

31:                                               ; preds = %27
  %32 = add nuw nsw i32 %9, 134221823
  %33 = lshr i32 %9, 13
  %34 = and i32 %33, 1
  %35 = add nuw nsw i32 %32, %34
  %36 = lshr i32 %35, 13
  %37 = and i32 %10, 32768
  %38 = or i32 %36, %37
  %39 = trunc i32 %38 to i16
  br label %_ZN9Imath_3_24halfC2Ef.exit

40:                                               ; preds = %.lr.ph
  %41 = icmp samesign ult i32 %9, 855638017
  br i1 %41, label %_ZN9Imath_3_24halfC2Ef.exit, label %42

42:                                               ; preds = %40
  %43 = lshr i32 %9, 23
  %44 = sub nuw nsw i32 126, %43
  %45 = and i32 %9, 8388607
  %46 = or disjoint i32 %45, 8388608
  %47 = add nsw i32 %43, -94
  %48 = shl i32 %46, %47
  %49 = lshr i32 %46, %44
  %50 = and i32 %10, 32768
  %51 = or i32 %49, %50
  %52 = trunc nuw i32 %51 to i16
  %53 = icmp ugt i32 %48, -2147483648
  br i1 %53, label %57, label %54

54:                                               ; preds = %42
  %55 = icmp ne i32 %48, -2147483648
  %56 = and i32 %49, 1
  %.not.i.i = icmp eq i32 %56, 0
  %or.cond.i.i = select i1 %55, i1 true, i1 %.not.i.i
  br i1 %or.cond.i.i, label %_ZN9Imath_3_24halfC2Ef.exit, label %57

57:                                               ; preds = %54, %42
  %58 = add nuw i16 %52, 1
  br label %_ZN9Imath_3_24halfC2Ef.exit

_ZN9Imath_3_24halfC2Ef.exit:                      ; preds = %16, %19, %29, %31, %40, %54, %57
  %.0.i.i = phi i16 [ %26, %19 ], [ %30, %29 ], [ %39, %31 ], [ %17, %16 ], [ %12, %40 ], [ %58, %57 ], [ %52, %54 ]
  %59 = getelementptr inbounds nuw i16, ptr %2, i64 %indvars.iv
  store i16 %.0.i.i, ptr %59, align 2, !tbaa !4
  %indvars.iv.next = add nuw nsw i64 %indvars.iv, 1
  %exitcond.not = icmp eq i64 %indvars.iv.next, %wide.trip.count
  br i1 %exitcond.not, label %._crit_edge, label %.lr.ph, !llvm.loop !10
}